target datalayout = "e-m:e-p270:32:32-p271:32:32-p272:64:64-i64:64-i128:128-f80:128-n8:16:32:64-S128"
target triple = "x86_64-pc-linux-gnu"

%struct.LoadedArchiveHeapRegion = type { i32, i64, i64, i64 }

@_ZN17ArchiveHeapLoader14_dumptime_baseE = hidden global i64 -1, align 8
@_ZN17ArchiveHeapLoader13_dumptime_topE = hidden global i64 0, align 8
@_ZN17ArchiveHeapLoader15_runtime_offsetE = hidden global i64 0, align 8

; Function Attrs: mustprogress nounwind uwtable
define linkonce_odr hidden noundef i64 @_ZN23LoadedArchiveHeapRegion3topEv(ptr noundef nonnull align 8 dereferenceable(32) %0) #1 comdat align 2 {
  %2 = alloca ptr, align 8
  store ptr %0, ptr %2, align 8
  %3 = load ptr, ptr %2, align 8
  %4 = getelementptr inbounds %struct.LoadedArchiveHeapRegion, ptr %3, i32 0, i32 2
  %5 = load i64, ptr %4, align 8
  %6 = getelementptr inbounds %struct.LoadedArchiveHeapRegion, ptr %3, i32 0, i32 1
  %7 = load i64, ptr %6, align 8
  %8 = add i64 %5, %7
  ret i64 %8
}

; Function Attrs: mustprogress nounwind uwtable
define hidden void @_ZN17ArchiveHeapLoader27init_loaded_heap_relocationEP23LoadedArchiveHeapRegion(ptr noundef %0) #1 align 2 {
  %2 = alloca ptr, align 8
  store ptr %0, ptr %2, align 8
  %3 = load ptr, ptr %2, align 8
  %4 = getelementptr inbounds %struct.LoadedArchiveHeapRegion, ptr %3, i32 0, i32 2
  %5 = load i64, ptr %4, align 8
  store i64 %5, ptr @_ZN17ArchiveHeapLoader14_dumptime_baseE, align 8
  %6 = load ptr, ptr %2, align 8
  %7 = call noundef i64 @_ZN23LoadedArchiveHeapRegion3topEv(ptr noundef nonnull align 8 dereferenceable(32) %6)
  store i64 %7, ptr @_ZN17ArchiveHeapLoader13_dumptime_topE, align 8
  %8 = load ptr, ptr %2, align 8
  %9 = getelementptr inbounds %struct.LoadedArchiveHeapRegion, ptr %8, i32 0, i32 3
  %10 = load i64, ptr %9, align 8
  store i64 %10, ptr @_ZN17ArchiveHeapLoader15_runtime_offsetE, align 8
  ret void
}