; Function Attrs: mustprogress nofree norecurse nosync nounwind willreturn memory(write, argmem: read, inaccessiblemem: none) uwtable
define hidden void @_ZN17ArchiveHeapLoader27init_loaded_heap_relocationEP23LoadedArchiveHeapRegion(ptr nocapture noundef readonly %0) local_unnamed_addr #4 align 2 {
  %2 = getelementptr inbounds i8, ptr %0, i64 16
  %3 = load i64, ptr %2, align 8
  store i64 %3, ptr @_ZN17ArchiveHeapLoader14_dumptime_baseE, align 8
  %4 = getelementptr inbounds i8, ptr %0, i64 8
  %5 = load i64, ptr %4, align 8
  %6 = add i64 %5, %3
  store i64 %6, ptr @_ZN17ArchiveHeapLoader13_dumptime_topE, align 8
  %7 = getelementptr inbounds i8, ptr %0, i64 24
  %8 = load i64, ptr %7, align 8
  store i64 %8, ptr @_ZN17ArchiveHeapLoader15_runtime_offsetE, align 8
  ret void
}